target datalayout = "e-m:e-p270:32:32-p271:32:32-p272:64:64-i64:64-i128:128-f80:128-n8:16:32:64-S128"
target triple = "x86_64-pc-linux-gnu"

%struct.IDAMemRec = type { double, ptr, ptr, i32, double, double, ptr, i32, ptr, ptr, i32, ptr, ptr, i32, i32, double, double, ptr, i32, i32, i32, ptr, ptr, i32, ptr, ptr, ptr, i32, double, i32, i32, double, ptr, ptr, i32, ptr, ptr, i32, i32, i32, double, ptr, ptr, [6 x ptr], [6 x double], [6 x double], [6 x double], [6 x double], [6 x double], ptr, ptr, ptr, ptr, ptr, ptr, ptr, ptr, ptr, ptr, ptr, ptr, ptr, ptr, ptr, [6 x ptr], ptr, ptr, ptr, ptr, [6 x ptr], ptr, ptr, ptr, ptr, ptr, ptr, ptr, ptr, ptr, ptr, ptr, ptr, ptr, ptr, [6 x ptr], ptr, ptr, ptr, ptr, ptr, double, ptr, ptr, i32, i32, i32, i32, i32, i32, i32, double, double, double, i32, double, i32, i32, i32, i32, double, double, double, double, double, double, double, double, double, double, double, double, double, double, i32, i32, i32, i32, i32, i64, double, i32, i64, i64, i64, i64, i64, i64, i64, i64, i64, i64, i64, i64, i64, i64, i64, i64, i64, i64, i64, i64, i64, i64, i64, i64, ptr, ptr, ptr, i32, i32, i32, i32, i32, i32, i32, i32, i32, i32, i32, i32, i32, ptr, ptr, ptr, ptr, ptr, ptr, i32, i32, i32, i32, i32, i32, double, double, double, ptr, i32, ptr, ptr, double, double, double, ptr, ptr, ptr, double, double, i32, i32, i64, ptr, i32, i32, ptr, i32 }
%struct.IDAadjMemRec = type { double, double, i32, i32, double, ptr, i32, ptr, i32, ptr, ptr, i32, i64, ptr, i64, i32, ptr, ptr, ptr, ptr, i32, i32, i32, i32, i32, [6 x ptr], [6 x ptr], [6 x double], ptr, ptr, ptr, ptr, i64 }
%struct.IDABMemRec = type { i32, double, ptr, i32, i32, ptr, ptr, ptr, ptr, ptr, ptr, ptr, ptr, ptr, double, ptr, ptr, ptr }
%struct.IDASpilsMemRecB = type { ptr, ptr, ptr, ptr, ptr, ptr, ptr }

@.str = private unnamed_addr constant [10 x i8] c"IDASSPILS\00", align 1
@.str.42 = private unnamed_addr constant [20 x i8] c"IDAAspilsPrecSetupB\00", align 1
@.str.43 = private unnamed_addr constant [25 x i8] c"Bad t for interpolation.\00", align 1

; Function Attrs: nounwind uwtable
define internal i32 @IDAAspilsPrecSetupB(double noundef %0, ptr noundef %1, ptr noundef %2, ptr noundef %3, double noundef %4, ptr noundef %5, ptr noundef %6, ptr noundef %7, ptr noundef %8) #0 {
  %10 = alloca i32, align 4
  %11 = alloca double, align 8
  %12 = alloca ptr, align 8
  %13 = alloca ptr, align 8
  %14 = alloca ptr, align 8
  %15 = alloca double, align 8
  %16 = alloca ptr, align 8
  %17 = alloca ptr, align 8
  %18 = alloca ptr, align 8
  %19 = alloca ptr, align 8
  %20 = alloca ptr, align 8
  %21 = alloca ptr, align 8
  %22 = alloca ptr, align 8
  %23 = alloca ptr, align 8
  %24 = alloca i32, align 4
  %25 = alloca i32, align 4
  store double %0, ptr %11, align 8, !tbaa !28
  store ptr %1, ptr %12, align 8, !tbaa !49
  store ptr %2, ptr %13, align 8, !tbaa !49
  store ptr %3, ptr %14, align 8, !tbaa !49
  store double %4, ptr %15, align 8, !tbaa !28
  store ptr %5, ptr %16, align 8, !tbaa !3
  store ptr %6, ptr %17, align 8, !tbaa !49
  store ptr %7, ptr %18, align 8, !tbaa !49
  store ptr %8, ptr %19, align 8, !tbaa !49
  call void @llvm.lifetime.start.p0(i64 8, ptr %20) #5
  call void @llvm.lifetime.start.p0(i64 8, ptr %21) #5
  call void @llvm.lifetime.start.p0(i64 8, ptr %22) #5
  call void @llvm.lifetime.start.p0(i64 8, ptr %23) #5
  call void @llvm.lifetime.start.p0(i64 4, ptr %24) #5
  %26 = load ptr, ptr %16, align 8, !tbaa !3
  store ptr %26, ptr %20, align 8, !tbaa !9
  %27 = load ptr, ptr %20, align 8, !tbaa !9
  %28 = getelementptr inbounds nuw %struct.IDAMemRec, ptr %27, i32 0, i32 204
  %29 = load ptr, ptr %28, align 8, !tbaa !67
  store ptr %29, ptr %21, align 8, !tbaa !68
  %30 = load ptr, ptr %21, align 8, !tbaa !68
  %31 = getelementptr inbounds nuw %struct.IDAadjMemRec, ptr %30, i32 0, i32 7
  %32 = load ptr, ptr %31, align 8, !tbaa !92
  store ptr %32, ptr %23, align 8, !tbaa !75
  %33 = load ptr, ptr %23, align 8, !tbaa !75
  %34 = getelementptr inbounds nuw %struct.IDABMemRec, ptr %33, i32 0, i32 10
  %35 = load ptr, ptr %34, align 8, !tbaa !86
  store ptr %35, ptr %22, align 8, !tbaa !87
  %36 = load ptr, ptr %21, align 8, !tbaa !68
  %37 = getelementptr inbounds nuw %struct.IDAadjMemRec, ptr %36, i32 0, i32 24
  %38 = load i32, ptr %37, align 8, !tbaa !93
  %39 = icmp eq i32 %38, 0
  br i1 %39, label %40, label %60

40:                                               ; preds = %9
  %41 = load ptr, ptr %21, align 8, !tbaa !68
  %42 = getelementptr inbounds nuw %struct.IDAadjMemRec, ptr %41, i32 0, i32 17
  %43 = load ptr, ptr %42, align 8, !tbaa !94
  %44 = load ptr, ptr %20, align 8, !tbaa !9
  %45 = load double, ptr %11, align 8, !tbaa !28
  %46 = load ptr, ptr %21, align 8, !tbaa !68
  %47 = getelementptr inbounds nuw %struct.IDAadjMemRec, ptr %46, i32 0, i32 28
  %48 = load ptr, ptr %47, align 8, !tbaa !95
  %49 = load ptr, ptr %21, align 8, !tbaa !68
  %50 = getelementptr inbounds nuw %struct.IDAadjMemRec, ptr %49, i32 0, i32 29
  %51 = load ptr, ptr %50, align 8, !tbaa !96
  %52 = call i32 %43(ptr noundef %44, double noundef %45, ptr noundef %48, ptr noundef %51, ptr noundef null, ptr noundef null)
  store i32 %52, ptr %24, align 4, !tbaa !7
  %53 = load i32, ptr %24, align 4, !tbaa !7
  %54 = icmp ne i32 %53, 0
  br i1 %54, label %55, label %59

55:                                               ; preds = %40
  %56 = load ptr, ptr %23, align 8, !tbaa !75
  %57 = getelementptr inbounds nuw %struct.IDABMemRec, ptr %56, i32 0, i32 2
  %58 = load ptr, ptr %57, align 8, !tbaa !80
  call void (ptr, i32, ptr, ptr, ptr, ...) @IDAProcessError(ptr noundef %58, i32 noundef -1, ptr noundef @.str, ptr noundef @.str.42, ptr noundef @.str.43)
  store i32 -1, ptr %10, align 4
  store i32 1, ptr %25, align 4
  br label %83

59:                                               ; preds = %40
  br label %60

60:                                               ; preds = %59, %9
  %61 = load ptr, ptr %22, align 8, !tbaa !87
  %62 = getelementptr inbounds nuw %struct.IDASpilsMemRecB, ptr %61, i32 0, i32 2
  %63 = load ptr, ptr %62, align 8, !tbaa !89
  %64 = load double, ptr %11, align 8, !tbaa !28
  %65 = load ptr, ptr %21, align 8, !tbaa !68
  %66 = getelementptr inbounds nuw %struct.IDAadjMemRec, ptr %65, i32 0, i32 28
  %67 = load ptr, ptr %66, align 8, !tbaa !95
  %68 = load ptr, ptr %21, align 8, !tbaa !68
  %69 = getelementptr inbounds nuw %struct.IDAadjMemRec, ptr %68, i32 0, i32 29
  %70 = load ptr, ptr %69, align 8, !tbaa !96
  %71 = load ptr, ptr %12, align 8, !tbaa !49
  %72 = load ptr, ptr %13, align 8, !tbaa !49
  %73 = load ptr, ptr %14, align 8, !tbaa !49
  %74 = load double, ptr %15, align 8, !tbaa !28
  %75 = load ptr, ptr %23, align 8, !tbaa !75
  %76 = getelementptr inbounds nuw %struct.IDABMemRec, ptr %75, i32 0, i32 9
  %77 = load ptr, ptr %76, align 8, !tbaa !97
  %78 = load ptr, ptr %17, align 8, !tbaa !49
  %79 = load ptr, ptr %18, align 8, !tbaa !49
  %80 = load ptr, ptr %19, align 8, !tbaa !49
  %81 = call i32 %63(double noundef %64, ptr noundef %67, ptr noundef %70, ptr noundef %71, ptr noundef %72, ptr noundef %73, double noundef %74, ptr noundef %77, ptr noundef %78, ptr noundef %79, ptr noundef %80)
  store i32 %81, ptr %24, align 4, !tbaa !7
  %82 = load i32, ptr %24, align 4, !tbaa !7
  store i32 %82, ptr %10, align 4
  store i32 1, ptr %25, align 4
  br label %83

83:                                               ; preds = %60, %55
  call void @llvm.lifetime.end.p0(i64 4, ptr %24) #5
  call void @llvm.lifetime.end.p0(i64 8, ptr %23) #5
  call void @llvm.lifetime.end.p0(i64 8, ptr %22) #5
  call void @llvm.lifetime.end.p0(i64 8, ptr %21) #5
  call void @llvm.lifetime.end.p0(i64 8, ptr %20) #5
  %84 = load i32, ptr %10, align 4
  ret i32 %84
}