; Function Attrs: nounwind uwtable
define internal i32 @IDAAspilsPrecSetupB(double noundef %0, ptr noundef %1, ptr noundef %2, ptr noundef %3, double noundef %4, ptr noundef %5, ptr noundef %6, ptr noundef %7, ptr noundef %8) #0 {
  %10 = getelementptr inbounds nuw i8, ptr %5, i64 1816
  %11 = load ptr, ptr %10, align 8, !tbaa !55
  %12 = getelementptr inbounds nuw i8, ptr %11, i64 48
  %13 = load ptr, ptr %12, align 8, !tbaa !71
  %14 = getelementptr inbounds nuw i8, ptr %13, i64 72
  %15 = load ptr, ptr %14, align 8, !tbaa !67
  %16 = getelementptr inbounds nuw i8, ptr %11, i64 168
  %17 = load i32, ptr %16, align 8, !tbaa !72
  %18 = icmp eq i32 %17, 0
  br i1 %18, label %19, label %30

19:                                               ; preds = %9
  %20 = getelementptr inbounds nuw i8, ptr %11, i64 128
  %21 = load ptr, ptr %20, align 8, !tbaa !73
  %22 = getelementptr inbounds nuw i8, ptr %11, i64 320
  %23 = load ptr, ptr %22, align 8, !tbaa !74
  %24 = getelementptr inbounds nuw i8, ptr %11, i64 328
  %25 = load ptr, ptr %24, align 8, !tbaa !75
  %26 = tail call i32 %21(ptr noundef nonnull %5, double noundef %0, ptr noundef %23, ptr noundef %25, ptr noundef null, ptr noundef null) #5
  %.not = icmp eq i32 %26, 0
  br i1 %.not, label %30, label %27

27:                                               ; preds = %19
  %28 = getelementptr inbounds nuw i8, ptr %13, i64 16
  %29 = load ptr, ptr %28, align 8, !tbaa !66
  tail call void (ptr, i32, ptr, ptr, ptr, ...) @IDAProcessError(ptr noundef %29, i32 noundef -1, ptr noundef nonnull @.str, ptr noundef nonnull @.str.42, ptr noundef nonnull @.str.43) #5
  br label %40

30:                                               ; preds = %19, %9
  %31 = getelementptr inbounds nuw i8, ptr %15, i64 16
  %32 = load ptr, ptr %31, align 8, !tbaa !68
  %33 = getelementptr inbounds nuw i8, ptr %11, i64 320
  %34 = load ptr, ptr %33, align 8, !tbaa !74
  %35 = getelementptr inbounds nuw i8, ptr %11, i64 328
  %36 = load ptr, ptr %35, align 8, !tbaa !75
  %37 = getelementptr inbounds nuw i8, ptr %13, i64 64
  %38 = load ptr, ptr %37, align 8, !tbaa !76
  %39 = tail call i32 %32(double noundef %0, ptr noundef %34, ptr noundef %36, ptr noundef %1, ptr noundef %2, ptr noundef %3, double noundef %4, ptr noundef %38, ptr noundef %6, ptr noundef %7, ptr noundef %8) #5
  br label %40

40:                                               ; preds = %30, %27
  %.0 = phi i32 [ -1, %27 ], [ %39, %30 ]
  ret i32 %.0
}